target datalayout = "e-m:e-p270:32:32-p271:32:32-p272:64:64-i64:64-i128:128-f80:128-n8:16:32:64-S128"
target triple = "x86_64-pc-linux-gnu"

%"class.pxrInternal_v0_24__pxrReserved__::pxr_double_conversion::Vector" = type <{ ptr, i32, [4 x i8] }>
%"class.pxrInternal_v0_24__pxrReserved__::pxr_double_conversion::DiyFp" = type <{ i64, i32, [4 x i8] }>
%"class.pxrInternal_v0_24__pxrReserved__::pxr_double_conversion::Double" = type { i64 }

; Function Attrs: mustprogress nounwind uwtable
define linkonce_odr noundef double @_ZN32pxrInternal_v0_24__pxrReserved__21pxr_double_conversion7BitCastIdmEET_RKT0_(ptr noundef nonnull align 8 dereferenceable(8) %0) #2 comdat {
  %2 = alloca ptr, align 8
  %3 = alloca double, align 8
  store ptr %0, ptr %2, align 8
  %4 = load ptr, ptr %2, align 8
  call void @llvm.memmove.p0.p0.i64(ptr align 8 %3, ptr align 8 %4, i64 8, i1 false)
  %5 = load double, ptr %3, align 8
  ret double %5
}

; Function Attrs: mustprogress uwtable
define internal noundef double @_ZN32pxrInternal_v0_24__pxrReserved__21pxr_double_conversionL16uint64_to_doubleEm(i64 noundef %0) #0 {
  %2 = alloca i64, align 8
  store i64 %0, ptr %2, align 8
  %3 = call noundef double @_ZN32pxrInternal_v0_24__pxrReserved__21pxr_double_conversion7BitCastIdmEET_RKT0_(ptr noundef nonnull align 8 dereferenceable(8) %2)
  ret double %3
}

; Function Attrs: mustprogress nounwind uwtable
define linkonce_odr noundef i64 @_ZN32pxrInternal_v0_24__pxrReserved__21pxr_double_conversion7BitCastImdEET_RKT0_(ptr noundef nonnull align 8 dereferenceable(8) %0) #2 comdat {
  %2 = alloca ptr, align 8
  %3 = alloca i64, align 8
  store ptr %0, ptr %2, align 8
  %4 = load ptr, ptr %2, align 8
  call void @llvm.memmove.p0.p0.i64(ptr align 8 %3, ptr align 8 %4, i64 8, i1 false)
  %5 = load i64, ptr %3, align 8
  ret i64 %5
}

; Function Attrs: mustprogress uwtable
define linkonce_odr noundef zeroext i1 @_ZNK32pxrInternal_v0_24__pxrReserved__21pxr_double_conversion6Double10IsDenormalEv(ptr noundef nonnull align 8 dereferenceable(8) %0) #0 comdat align 2 {
  %2 = alloca ptr, align 8
  %3 = alloca i64, align 8
  store ptr %0, ptr %2, align 8
  %4 = load ptr, ptr %2, align 8
  %5 = call noundef i64 @_ZNK32pxrInternal_v0_24__pxrReserved__21pxr_double_conversion6Double8AsUint64Ev(ptr noundef nonnull align 8 dereferenceable(8) %4)
  store i64 %5, ptr %3, align 8
  %6 = load i64, ptr %3, align 8
  %7 = and i64 %6, 9218868437227405312
  %8 = icmp eq i64 %7, 0
  ret i1 %8
}

; Function Attrs: mustprogress nounwind uwtable
define linkonce_odr noundef i64 @_ZNK32pxrInternal_v0_24__pxrReserved__21pxr_double_conversion6Double8AsUint64Ev(ptr noundef nonnull align 8 dereferenceable(8) %0) #2 comdat align 2 {
  %2 = alloca ptr, align 8
  store ptr %0, ptr %2, align 8
  %3 = load ptr, ptr %2, align 8
  %4 = getelementptr inbounds nuw %"class.pxrInternal_v0_24__pxrReserved__::pxr_double_conversion::Double", ptr %3, i32 0, i32 0
  %5 = load i64, ptr %4, align 8
  ret i64 %5
}

; Function Attrs: mustprogress nounwind uwtable
define linkonce_odr noundef i32 @_ZNK32pxrInternal_v0_24__pxrReserved__21pxr_double_conversion6Double4SignEv(ptr noundef nonnull align 8 dereferenceable(8) %0) #2 comdat align 2 {
  %2 = alloca ptr, align 8
  %3 = alloca i64, align 8
  store ptr %0, ptr %2, align 8
  %4 = load ptr, ptr %2, align 8
  %5 = call noundef i64 @_ZNK32pxrInternal_v0_24__pxrReserved__21pxr_double_conversion6Double8AsUint64Ev(ptr noundef nonnull align 8 dereferenceable(8) %4)
  store i64 %5, ptr %3, align 8
  %6 = load i64, ptr %3, align 8
  %7 = and i64 %6, -9223372036854775808
  %8 = icmp eq i64 %7, 0
  %9 = select i1 %8, i32 1, i32 -1
  ret i32 %9
}

; Function Attrs: mustprogress uwtable
define linkonce_odr noundef double @_ZNK32pxrInternal_v0_24__pxrReserved__21pxr_double_conversion6Double5valueEv(ptr noundef nonnull align 8 dereferenceable(8) %0) #0 comdat align 2 {
  %2 = alloca ptr, align 8
  store ptr %0, ptr %2, align 8
  %3 = load ptr, ptr %2, align 8
  %4 = getelementptr inbounds nuw %"class.pxrInternal_v0_24__pxrReserved__::pxr_double_conversion::Double", ptr %3, i32 0, i32 0
  %5 = load i64, ptr %4, align 8
  %6 = call noundef double @_ZN32pxrInternal_v0_24__pxrReserved__21pxr_double_conversionL16uint64_to_doubleEm(i64 noundef %5)
  ret double %6
}

; Function Attrs: mustprogress nounwind uwtable
define linkonce_odr void @_ZN32pxrInternal_v0_24__pxrReserved__21pxr_double_conversion6DoubleC2Em(ptr noundef nonnull align 8 dereferenceable(8) %0, i64 noundef %1) unnamed_addr #2 comdat align 2 {
  %3 = alloca ptr, align 8
  %4 = alloca i64, align 8
  store ptr %0, ptr %3, align 8
  store i64 %1, ptr %4, align 8
  %5 = load ptr, ptr %3, align 8
  %6 = getelementptr inbounds nuw %"class.pxrInternal_v0_24__pxrReserved__::pxr_double_conversion::Double", ptr %5, i32 0, i32 0
  %7 = load i64, ptr %4, align 8
  store i64 %7, ptr %6, align 8
  ret void
}

; Function Attrs: mustprogress nounwind uwtable
define linkonce_odr void @_ZN32pxrInternal_v0_24__pxrReserved__21pxr_double_conversion5DiyFpC2Emi(ptr noundef nonnull align 8 dereferenceable(12) %0, i64 noundef %1, i32 noundef %2) unnamed_addr #2 comdat align 2 {
  %4 = alloca ptr, align 8
  %5 = alloca i64, align 8
  %6 = alloca i32, align 4
  store ptr %0, ptr %4, align 8
  store i64 %1, ptr %5, align 8
  store i32 %2, ptr %6, align 4
  %7 = load ptr, ptr %4, align 8
  %8 = getelementptr inbounds nuw %"class.pxrInternal_v0_24__pxrReserved__::pxr_double_conversion::DiyFp", ptr %7, i32 0, i32 0
  %9 = load i64, ptr %5, align 8
  store i64 %9, ptr %8, align 8
  %10 = getelementptr inbounds nuw %"class.pxrInternal_v0_24__pxrReserved__::pxr_double_conversion::DiyFp", ptr %7, i32 0, i32 1
  %11 = load i32, ptr %6, align 4
  store i32 %11, ptr %10, align 8
  ret void
}

; Function Attrs: mustprogress uwtable
define linkonce_odr noundef i32 @_ZNK32pxrInternal_v0_24__pxrReserved__21pxr_double_conversion6Double8ExponentEv(ptr noundef nonnull align 8 dereferenceable(8) %0) #0 comdat align 2 {
  %2 = alloca i32, align 4
  %3 = alloca ptr, align 8
  %4 = alloca i64, align 8
  %5 = alloca i32, align 4
  store ptr %0, ptr %3, align 8
  %6 = load ptr, ptr %3, align 8
  %7 = call noundef zeroext i1 @_ZNK32pxrInternal_v0_24__pxrReserved__21pxr_double_conversion6Double10IsDenormalEv(ptr noundef nonnull align 8 dereferenceable(8) %6)
  br i1 %7, label %8, label %9

8:                                                ; preds = %1
  store i32 -1074, ptr %2, align 4
  br label %17

9:                                                ; preds = %1
  %10 = call noundef i64 @_ZNK32pxrInternal_v0_24__pxrReserved__21pxr_double_conversion6Double8AsUint64Ev(ptr noundef nonnull align 8 dereferenceable(8) %6)
  store i64 %10, ptr %4, align 8
  %11 = load i64, ptr %4, align 8
  %12 = and i64 %11, 9218868437227405312
  %13 = lshr i64 %12, 52
  %14 = trunc i64 %13 to i32
  store i32 %14, ptr %5, align 4
  %15 = load i32, ptr %5, align 4
  %16 = sub nsw i32 %15, 1075
  store i32 %16, ptr %2, align 4
  br label %17

17:                                               ; preds = %9, %8
  %18 = load i32, ptr %2, align 4
  ret i32 %18
}

; Function Attrs: mustprogress uwtable
define internal noundef i64 @_ZN32pxrInternal_v0_24__pxrReserved__21pxr_double_conversionL16double_to_uint64Ed(double noundef %0) #0 {
  %2 = alloca double, align 8
  store double %0, ptr %2, align 8
  %3 = call noundef i64 @_ZN32pxrInternal_v0_24__pxrReserved__21pxr_double_conversion7BitCastImdEET_RKT0_(ptr noundef nonnull align 8 dereferenceable(8) %2)
  ret i64 %3
}

; Function Attrs: mustprogress uwtable
define linkonce_odr noundef i64 @_ZNK32pxrInternal_v0_24__pxrReserved__21pxr_double_conversion6Double11SignificandEv(ptr noundef nonnull align 8 dereferenceable(8) %0) #0 comdat align 2 {
  %2 = alloca i64, align 8
  %3 = alloca ptr, align 8
  %4 = alloca i64, align 8
  %5 = alloca i64, align 8
  store ptr %0, ptr %3, align 8
  %6 = load ptr, ptr %3, align 8
  %7 = call noundef i64 @_ZNK32pxrInternal_v0_24__pxrReserved__21pxr_double_conversion6Double8AsUint64Ev(ptr noundef nonnull align 8 dereferenceable(8) %6)
  store i64 %7, ptr %4, align 8
  %8 = load i64, ptr %4, align 8
  %9 = and i64 %8, 4503599627370495
  store i64 %9, ptr %5, align 8
  %10 = call noundef zeroext i1 @_ZNK32pxrInternal_v0_24__pxrReserved__21pxr_double_conversion6Double10IsDenormalEv(ptr noundef nonnull align 8 dereferenceable(8) %6)
  br i1 %10, label %14, label %11

11:                                               ; preds = %1
  %12 = load i64, ptr %5, align 8
  %13 = add i64 %12, 4503599627370496
  store i64 %13, ptr %2, align 8
  br label %16

14:                                               ; preds = %1
  %15 = load i64, ptr %5, align 8
  store i64 %15, ptr %2, align 8
  br label %16

16:                                               ; preds = %14, %11
  %17 = load i64, ptr %2, align 8
  ret i64 %17
}

; Function Attrs: mustprogress uwtable
define linkonce_odr noundef double @_ZNK32pxrInternal_v0_24__pxrReserved__21pxr_double_conversion6Double10NextDoubleEv(ptr noundef nonnull align 8 dereferenceable(8) %0) #0 comdat align 2 {
  %2 = alloca double, align 8
  %3 = alloca ptr, align 8
  %4 = alloca %"class.pxrInternal_v0_24__pxrReserved__::pxr_double_conversion::Double", align 8
  %5 = alloca %"class.pxrInternal_v0_24__pxrReserved__::pxr_double_conversion::Double", align 8
  %6 = alloca %"class.pxrInternal_v0_24__pxrReserved__::pxr_double_conversion::Double", align 8
  store ptr %0, ptr %3, align 8
  %7 = load ptr, ptr %3, align 8
  %8 = getelementptr inbounds nuw %"class.pxrInternal_v0_24__pxrReserved__::pxr_double_conversion::Double", ptr %7, i32 0, i32 0
  %9 = load i64, ptr %8, align 8
  %10 = icmp eq i64 %9, 9218868437227405312
  br i1 %10, label %11, label %13

11:                                               ; preds = %1
  call void @_ZN32pxrInternal_v0_24__pxrReserved__21pxr_double_conversion6DoubleC2Em(ptr noundef nonnull align 8 dereferenceable(8) %4, i64 noundef 9218868437227405312)
  %12 = call noundef double @_ZNK32pxrInternal_v0_24__pxrReserved__21pxr_double_conversion6Double5valueEv(ptr noundef nonnull align 8 dereferenceable(8) %4)
  store double %12, ptr %2, align 8
  br label %33

13:                                               ; preds = %1
  %14 = call noundef i32 @_ZNK32pxrInternal_v0_24__pxrReserved__21pxr_double_conversion6Double4SignEv(ptr noundef nonnull align 8 dereferenceable(8) %7)
  %15 = icmp slt i32 %14, 0
  br i1 %15, label %16, label %20

16:                                               ; preds = %13
  %17 = call noundef i64 @_ZNK32pxrInternal_v0_24__pxrReserved__21pxr_double_conversion6Double11SignificandEv(ptr noundef nonnull align 8 dereferenceable(8) %7)
  %18 = icmp eq i64 %17, 0
  br i1 %18, label %19, label %20

19:                                               ; preds = %16
  store double 0.000000e+00, ptr %2, align 8
  br label %33

20:                                               ; preds = %16, %13
  %21 = call noundef i32 @_ZNK32pxrInternal_v0_24__pxrReserved__21pxr_double_conversion6Double4SignEv(ptr noundef nonnull align 8 dereferenceable(8) %7)
  %22 = icmp slt i32 %21, 0
  br i1 %22, label %23, label %28

23:                                               ; preds = %20
  %24 = getelementptr inbounds nuw %"class.pxrInternal_v0_24__pxrReserved__::pxr_double_conversion::Double", ptr %7, i32 0, i32 0
  %25 = load i64, ptr %24, align 8
  %26 = sub i64 %25, 1
  call void @_ZN32pxrInternal_v0_24__pxrReserved__21pxr_double_conversion6DoubleC2Em(ptr noundef nonnull align 8 dereferenceable(8) %5, i64 noundef %26)
  %27 = call noundef double @_ZNK32pxrInternal_v0_24__pxrReserved__21pxr_double_conversion6Double5valueEv(ptr noundef nonnull align 8 dereferenceable(8) %5)
  store double %27, ptr %2, align 8
  br label %33

28:                                               ; preds = %20
  %29 = getelementptr inbounds nuw %"class.pxrInternal_v0_24__pxrReserved__::pxr_double_conversion::Double", ptr %7, i32 0, i32 0
  %30 = load i64, ptr %29, align 8
  %31 = add i64 %30, 1
  call void @_ZN32pxrInternal_v0_24__pxrReserved__21pxr_double_conversion6DoubleC2Em(ptr noundef nonnull align 8 dereferenceable(8) %6, i64 noundef %31)
  %32 = call noundef double @_ZNK32pxrInternal_v0_24__pxrReserved__21pxr_double_conversion6Double5valueEv(ptr noundef nonnull align 8 dereferenceable(8) %6)
  store double %32, ptr %2, align 8
  br label %33

33:                                               ; preds = %28, %23, %19, %11
  %34 = load double, ptr %2, align 8
  ret double %34
}

; Function Attrs: mustprogress uwtable
define linkonce_odr { i64, i32 } @_ZNK32pxrInternal_v0_24__pxrReserved__21pxr_double_conversion6Double13UpperBoundaryEv(ptr noundef nonnull align 8 dereferenceable(8) %0) #0 comdat align 2 {
  %2 = alloca %"class.pxrInternal_v0_24__pxrReserved__::pxr_double_conversion::DiyFp", align 8
  %3 = alloca ptr, align 8
  store ptr %0, ptr %3, align 8
  %4 = load ptr, ptr %3, align 8
  %5 = call noundef i64 @_ZNK32pxrInternal_v0_24__pxrReserved__21pxr_double_conversion6Double11SignificandEv(ptr noundef nonnull align 8 dereferenceable(8) %4)
  %6 = mul i64 %5, 2
  %7 = add i64 %6, 1
  %8 = call noundef i32 @_ZNK32pxrInternal_v0_24__pxrReserved__21pxr_double_conversion6Double8ExponentEv(ptr noundef nonnull align 8 dereferenceable(8) %4)
  %9 = sub nsw i32 %8, 1
  call void @_ZN32pxrInternal_v0_24__pxrReserved__21pxr_double_conversion5DiyFpC2Emi(ptr noundef nonnull align 8 dereferenceable(12) %2, i64 noundef %7, i32 noundef %9)
  %10 = load { i64, i32 }, ptr %2, align 8
  ret { i64, i32 } %10
}

; Function Attrs: mustprogress uwtable
define linkonce_odr void @_ZN32pxrInternal_v0_24__pxrReserved__21pxr_double_conversion6DoubleC2Ed(ptr noundef nonnull align 8 dereferenceable(8) %0, double noundef %1) unnamed_addr #0 comdat align 2 {
  %3 = alloca ptr, align 8
  %4 = alloca double, align 8
  store ptr %0, ptr %3, align 8
  store double %1, ptr %4, align 8
  %5 = load ptr, ptr %3, align 8
  %6 = getelementptr inbounds nuw %"class.pxrInternal_v0_24__pxrReserved__::pxr_double_conversion::Double", ptr %5, i32 0, i32 0
  %7 = load double, ptr %4, align 8
  %8 = call noundef i64 @_ZN32pxrInternal_v0_24__pxrReserved__21pxr_double_conversionL16double_to_uint64Ed(double noundef %7)
  store i64 %8, ptr %6, align 8
  ret void
}

; Function Attrs: mustprogress uwtable
define noundef double @_ZN32pxrInternal_v0_24__pxrReserved__21pxr_double_conversion13StrtodTrimmedENS0_6VectorIKcEEi(ptr %0, i32 %1, i32 noundef %2) #0 {
  %4 = alloca double, align 8
  %5 = alloca %"class.pxrInternal_v0_24__pxrReserved__::pxr_double_conversion::Vector", align 8
  %6 = alloca i32, align 4
  %7 = alloca double, align 8
  %8 = alloca i8, align 1
  %9 = alloca %"class.pxrInternal_v0_24__pxrReserved__::pxr_double_conversion::Vector", align 8
  %10 = alloca %"class.pxrInternal_v0_24__pxrReserved__::pxr_double_conversion::DiyFp", align 8
  %11 = alloca %"class.pxrInternal_v0_24__pxrReserved__::pxr_double_conversion::Double", align 8
  %12 = alloca { i64, i32 }, align 8
  %13 = alloca i32, align 4
  %14 = alloca %"class.pxrInternal_v0_24__pxrReserved__::pxr_double_conversion::Vector", align 8
  %15 = alloca %"class.pxrInternal_v0_24__pxrReserved__::pxr_double_conversion::DiyFp", align 8
  %16 = alloca %"class.pxrInternal_v0_24__pxrReserved__::pxr_double_conversion::Double", align 8
  %17 = alloca %"class.pxrInternal_v0_24__pxrReserved__::pxr_double_conversion::Double", align 8
  %18 = alloca %"class.pxrInternal_v0_24__pxrReserved__::pxr_double_conversion::Double", align 8
  %19 = getelementptr inbounds nuw { ptr, i32 }, ptr %5, i32 0, i32 0
  store ptr %0, ptr %19, align 8
  %20 = getelementptr inbounds nuw { ptr, i32 }, ptr %5, i32 0, i32 1
  store i32 %1, ptr %20, align 8
  store i32 %2, ptr %6, align 4
  call void @llvm.memcpy.p0.p0.i64(ptr align 8 %9, ptr align 8 %5, i64 16, i1 false)
  %21 = load i32, ptr %6, align 4
  %22 = getelementptr inbounds nuw { ptr, i32 }, ptr %9, i32 0, i32 0
  %23 = load ptr, ptr %22, align 8
  %24 = getelementptr inbounds nuw { ptr, i32 }, ptr %9, i32 0, i32 1
  %25 = load i32, ptr %24, align 8
  %26 = call noundef zeroext i1 @_ZN32pxrInternal_v0_24__pxrReserved__21pxr_double_conversionL12ComputeGuessENS0_6VectorIKcEEiPd(ptr %23, i32 %25, i32 noundef %21, ptr noundef %7)
  %27 = zext i1 %26 to i8
  store i8 %27, ptr %8, align 1
  %28 = load i8, ptr %8, align 1
  %29 = trunc i8 %28 to i1
  br i1 %29, label %30, label %32

30:                                               ; preds = %3
  %31 = load double, ptr %7, align 8
  store double %31, ptr %4, align 8
  br label %65

32:                                               ; preds = %3
  %33 = load double, ptr %7, align 8
  call void @_ZN32pxrInternal_v0_24__pxrReserved__21pxr_double_conversion6DoubleC2Ed(ptr noundef nonnull align 8 dereferenceable(8) %11, double noundef %33)
  %34 = call { i64, i32 } @_ZNK32pxrInternal_v0_24__pxrReserved__21pxr_double_conversion6Double13UpperBoundaryEv(ptr noundef nonnull align 8 dereferenceable(8) %11)
  store { i64, i32 } %34, ptr %12, align 8
  call void @llvm.memcpy.p0.p0.i64(ptr align 8 %10, ptr align 8 %12, i64 12, i1 false)
  call void @llvm.memcpy.p0.p0.i64(ptr align 8 %14, ptr align 8 %5, i64 16, i1 false)
  %35 = load i32, ptr %6, align 4
  call void @llvm.memcpy.p0.p0.i64(ptr align 8 %15, ptr align 8 %10, i64 16, i1 false)
  %36 = getelementptr inbounds nuw { ptr, i32 }, ptr %14, i32 0, i32 0
  %37 = load ptr, ptr %36, align 8
  %38 = getelementptr inbounds nuw { ptr, i32 }, ptr %14, i32 0, i32 1
  %39 = load i32, ptr %38, align 8
  %40 = getelementptr inbounds nuw { i64, i32 }, ptr %15, i32 0, i32 0
  %41 = load i64, ptr %40, align 8
  %42 = getelementptr inbounds nuw { i64, i32 }, ptr %15, i32 0, i32 1
  %43 = load i32, ptr %42, align 8
  %44 = call noundef i32 @_ZN32pxrInternal_v0_24__pxrReserved__21pxr_double_conversionL22CompareBufferWithDiyFpENS0_6VectorIKcEEiNS0_5DiyFpE(ptr %37, i32 %39, i32 noundef %35, i64 %41, i32 %43)
  store i32 %44, ptr %13, align 4
  %45 = load i32, ptr %13, align 4
  %46 = icmp slt i32 %45, 0
  br i1 %46, label %47, label %49

47:                                               ; preds = %32
  %48 = load double, ptr %7, align 8
  store double %48, ptr %4, align 8
  br label %65

49:                                               ; preds = %32
  %50 = load i32, ptr %13, align 4
  %51 = icmp sgt i32 %50, 0
  br i1 %51, label %52, label %55

52:                                               ; preds = %49
  %53 = load double, ptr %7, align 8
  call void @_ZN32pxrInternal_v0_24__pxrReserved__21pxr_double_conversion6DoubleC2Ed(ptr noundef nonnull align 8 dereferenceable(8) %16, double noundef %53)
  %54 = call noundef double @_ZNK32pxrInternal_v0_24__pxrReserved__21pxr_double_conversion6Double10NextDoubleEv(ptr noundef nonnull align 8 dereferenceable(8) %16)
  store double %54, ptr %4, align 8
  br label %65

55:                                               ; preds = %49
  %56 = load double, ptr %7, align 8
  call void @_ZN32pxrInternal_v0_24__pxrReserved__21pxr_double_conversion6DoubleC2Ed(ptr noundef nonnull align 8 dereferenceable(8) %17, double noundef %56)
  %57 = call noundef i64 @_ZNK32pxrInternal_v0_24__pxrReserved__21pxr_double_conversion6Double11SignificandEv(ptr noundef nonnull align 8 dereferenceable(8) %17)
  %58 = and i64 %57, 1
  %59 = icmp eq i64 %58, 0
  br i1 %59, label %60, label %62

60:                                               ; preds = %55
  %61 = load double, ptr %7, align 8
  store double %61, ptr %4, align 8
  br label %65

62:                                               ; preds = %55
  %63 = load double, ptr %7, align 8
  call void @_ZN32pxrInternal_v0_24__pxrReserved__21pxr_double_conversion6DoubleC2Ed(ptr noundef nonnull align 8 dereferenceable(8) %18, double noundef %63)
  %64 = call noundef double @_ZNK32pxrInternal_v0_24__pxrReserved__21pxr_double_conversion6Double10NextDoubleEv(ptr noundef nonnull align 8 dereferenceable(8) %18)
  store double %64, ptr %4, align 8
  br label %65

65:                                               ; preds = %62, %60, %52, %47, %30
  %66 = load double, ptr %4, align 8
  ret double %66
}